target datalayout = "e-m:e-p270:32:32-p271:32:32-p272:64:64-i64:64-i128:128-f80:128-n8:16:32:64-S128"
target triple = "x86_64-pc-linux-gnu"

%struct.expert_field = type { i32, i32 }
%struct._packet_info = type { ptr, ptr, i32, i32, %struct.nstime_t, %struct.nstime_t, %struct.nstime_t, i8, ptr, ptr, ptr, ptr, %struct._address, %struct._address, %struct._address, %struct._address, %struct._address, %struct._address, i32, ptr, i8, [3 x i8], %struct.anon, i32, i32, i32, i32, ptr, i8, ptr, ptr, i16, i16, i32, i32, i16, i32, i32, ptr, ptr, ptr, i8, i8, i16, i16, i16, i32, i16, i16, ptr, ptr, ptr, ptr, ptr, i32, i32 }
%struct.nstime_t = type { i64, i32 }
%struct._address = type { i32, i32, ptr, ptr }
%struct.anon = type { i8, [3 x i8] }

@hf_beep_crlf_terminator = internal global i32 0, align 4
@ei_beep_cr_terminator = internal global %struct.expert_field zeroinitializer, align 4
@ei_beep_lf_terminator = internal global %struct.expert_field zeroinitializer, align 4
@ei_beep_invalid_terminator = internal global %struct.expert_field zeroinitializer, align 4
@global_beep_strict_term = internal global i8 1, align 1
@.str.66 = private unnamed_addr constant [15 x i8] c"Terminator: %s\00", align 1

; Function Attrs: null_pointer_is_valid sspstrong uwtable
define internal i32 @check_term(ptr noundef %0, ptr noundef %1, i32 noundef %2, ptr noundef %3) #0 {
  %5 = alloca i32, align 4
  %6 = alloca ptr, align 8
  %7 = alloca ptr, align 8
  %8 = alloca i32, align 4
  %9 = alloca ptr, align 8
  store ptr %0, ptr %6, align 8
  store ptr %1, ptr %7, align 8
  store i32 %2, ptr %8, align 4
  store ptr %3, ptr %9, align 8
  %10 = load ptr, ptr %6, align 8
  %11 = load i32, ptr %8, align 4
  %12 = call zeroext i8 @tvb_get_uint8(ptr noundef %10, i32 noundef %11)
  %13 = zext i8 %12 to i32
  %14 = icmp eq i32 %13, 13
  br i1 %14, label %15, label %28

15:                                               ; preds = %4
  %16 = load ptr, ptr %6, align 8
  %17 = load i32, ptr %8, align 4
  %18 = add i32 %17, 1
  %19 = call zeroext i8 @tvb_get_uint8(ptr noundef %16, i32 noundef %18)
  %20 = zext i8 %19 to i32
  %21 = icmp eq i32 %20, 10
  br i1 %21, label %22, label %28

22:                                               ; preds = %15
  %23 = load ptr, ptr %9, align 8
  %24 = load i32, ptr @hf_beep_crlf_terminator, align 4
  %25 = load ptr, ptr %6, align 8
  %26 = load i32, ptr %8, align 4
  %27 = call ptr @proto_tree_add_item(ptr noundef %23, i32 noundef %24, ptr noundef %25, i32 noundef %26, i32 noundef 2, i32 noundef 0)
  store i32 2, ptr %5, align 4
  br label %70

28:                                               ; preds = %15, %4
  %29 = load ptr, ptr %6, align 8
  %30 = load i32, ptr %8, align 4
  %31 = call zeroext i8 @tvb_get_uint8(ptr noundef %29, i32 noundef %30)
  %32 = zext i8 %31 to i32
  %33 = icmp eq i32 %32, 13
  br i1 %33, label %34, label %43

34:                                               ; preds = %28
  %35 = load i8, ptr @global_beep_strict_term, align 1, !range !6, !noundef !7
  %36 = trunc i8 %35 to i1
  br i1 %36, label %43, label %37

37:                                               ; preds = %34
  %38 = load ptr, ptr %9, align 8
  %39 = load ptr, ptr %7, align 8
  %40 = load ptr, ptr %6, align 8
  %41 = load i32, ptr %8, align 4
  %42 = call ptr @proto_tree_add_expert(ptr noundef %38, ptr noundef %39, ptr noundef @ei_beep_cr_terminator, ptr noundef %40, i32 noundef %41, i32 noundef 1)
  store i32 1, ptr %5, align 4
  br label %70

43:                                               ; preds = %34, %28
  %44 = load ptr, ptr %6, align 8
  %45 = load i32, ptr %8, align 4
  %46 = call zeroext i8 @tvb_get_uint8(ptr noundef %44, i32 noundef %45)
  %47 = zext i8 %46 to i32
  %48 = icmp eq i32 %47, 10
  br i1 %48, label %49, label %58

49:                                               ; preds = %43
  %50 = load i8, ptr @global_beep_strict_term, align 1, !range !6, !noundef !7
  %51 = trunc i8 %50 to i1
  br i1 %51, label %58, label %52

52:                                               ; preds = %49
  %53 = load ptr, ptr %9, align 8
  %54 = load ptr, ptr %7, align 8
  %55 = load ptr, ptr %6, align 8
  %56 = load i32, ptr %8, align 4
  %57 = call ptr @proto_tree_add_expert(ptr noundef %53, ptr noundef %54, ptr noundef @ei_beep_lf_terminator, ptr noundef %55, i32 noundef %56, i32 noundef 1)
  store i32 1, ptr %5, align 4
  br label %70

58:                                               ; preds = %49, %43
  %59 = load ptr, ptr %9, align 8
  %60 = load ptr, ptr %7, align 8
  %61 = load ptr, ptr %6, align 8
  %62 = load i32, ptr %8, align 4
  %63 = load ptr, ptr %7, align 8
  %64 = getelementptr inbounds nuw %struct._packet_info, ptr %63, i32 0, i32 51
  %65 = load ptr, ptr %64, align 8
  %66 = load ptr, ptr %6, align 8
  %67 = load i32, ptr %8, align 4
  %68 = call ptr @tvb_format_text(ptr noundef %65, ptr noundef %66, i32 noundef %67, i32 noundef 2)
  %69 = call ptr (ptr, ptr, ptr, ptr, i32, i32, ptr, ...) @proto_tree_add_expert_format(ptr noundef %59, ptr noundef %60, ptr noundef @ei_beep_invalid_terminator, ptr noundef %61, i32 noundef %62, i32 noundef 1, ptr noundef @.str.66, ptr noundef %68)
  store i32 -1, ptr %5, align 4
  br label %70

70:                                               ; preds = %58, %52, %37, %22
  %71 = load i32, ptr %5, align 4
  ret i32 %71
}