; Function Attrs: null_pointer_is_valid sspstrong uwtable
define internal fastcc range(i32 -1, 3) i32 @check_term(ptr noundef %0, ptr noundef %1, i32 noundef %2, ptr noundef %3) unnamed_addr #0 {
  %5 = tail call zeroext i8 @tvb_get_uint8(ptr noundef %0, i32 noundef %2)
  %6 = icmp eq i8 %5, 13
  br i1 %6, label %7, label %14

7:                                                ; preds = %4
  %8 = add i32 %2, 1
  %9 = tail call zeroext i8 @tvb_get_uint8(ptr noundef %0, i32 noundef %8)
  %10 = icmp eq i8 %9, 10
  br i1 %10, label %11, label %14

11:                                               ; preds = %7
  %12 = load i32, ptr @hf_beep_crlf_terminator, align 4
  %13 = tail call ptr @proto_tree_add_item(ptr noundef %3, i32 noundef %12, ptr noundef %0, i32 noundef %2, i32 noundef 2, i32 noundef 0)
  br label %35

14:                                               ; preds = %7, %4
  %15 = tail call zeroext i8 @tvb_get_uint8(ptr noundef %0, i32 noundef %2)
  %16 = icmp eq i8 %15, 13
  br i1 %16, label %17, label %22

17:                                               ; preds = %14
  %18 = load i8, ptr @global_beep_strict_term, align 1, !range !6, !noundef !7
  %19 = trunc nuw i8 %18 to i1
  br i1 %19, label %22, label %20

20:                                               ; preds = %17
  %21 = tail call ptr @proto_tree_add_expert(ptr noundef %3, ptr noundef %1, ptr noundef nonnull @ei_beep_cr_terminator, ptr noundef %0, i32 noundef %2, i32 noundef 1)
  br label %35

22:                                               ; preds = %17, %14
  %23 = tail call zeroext i8 @tvb_get_uint8(ptr noundef %0, i32 noundef %2)
  %24 = icmp eq i8 %23, 10
  br i1 %24, label %25, label %30

25:                                               ; preds = %22
  %26 = load i8, ptr @global_beep_strict_term, align 1, !range !6, !noundef !7
  %27 = trunc nuw i8 %26 to i1
  br i1 %27, label %30, label %28

28:                                               ; preds = %25
  %29 = tail call ptr @proto_tree_add_expert(ptr noundef %3, ptr noundef %1, ptr noundef nonnull @ei_beep_lf_terminator, ptr noundef %0, i32 noundef %2, i32 noundef 1)
  br label %35

30:                                               ; preds = %25, %22
  %31 = getelementptr inbounds nuw i8, ptr %1, i64 408
  %32 = load ptr, ptr %31, align 8
  %33 = tail call ptr @tvb_format_text(ptr noundef %32, ptr noundef %0, i32 noundef %2, i32 noundef 2)
  %34 = tail call ptr (ptr, ptr, ptr, ptr, i32, i32, ptr, ...) @proto_tree_add_expert_format(ptr noundef %3, ptr noundef %1, ptr noundef nonnull @ei_beep_invalid_terminator, ptr noundef %0, i32 noundef %2, i32 noundef 1, ptr noundef nonnull @.str.66, ptr noundef %33)
  br label %35

35:                                               ; preds = %30, %28, %20, %11
  %.0 = phi i32 [ 2, %11 ], [ -1, %30 ], [ 1, %28 ], [ 1, %20 ]
  ret i32 %.0
}